target datalayout = "e-m:e-p270:32:32-p271:32:32-p272:64:64-i64:64-i128:128-f80:128-n8:16:32:64-S128"
target triple = "x86_64-pc-linux-gnu"

%struct.archive_write_filter = type { i64, ptr, ptr, ptr, ptr, ptr, ptr, ptr, ptr, ptr, ptr, i32, i32, i32, i32 }
%struct.private_data = type { ptr, %struct.archive_string, ptr }
%struct.archive_string = type { ptr, i64, i64 }
%struct.archive_write_program_data = type { i32, i32, i32, ptr, i64, i64, ptr }

@.str.2 = private unnamed_addr constant [34 x i8] c"Can't allocate compression buffer\00", align 1
@.str.3 = private unnamed_addr constant [34 x i8] c"Can't launch external program: %s\00", align 1

; Function Attrs: nounwind uwtable
define dso_local i32 @__archive_write_program_open(ptr noundef %0, ptr noundef %1, ptr noundef %2) #0 {
  %4 = alloca i32, align 4
  %5 = alloca ptr, align 8
  %6 = alloca ptr, align 8
  %7 = alloca ptr, align 8
  %8 = alloca i32, align 4
  store ptr %0, ptr %5, align 8
  store ptr %1, ptr %6, align 8
  store ptr %2, ptr %7, align 8
  %9 = load ptr, ptr %6, align 8
  %10 = getelementptr inbounds %struct.archive_write_program_data, ptr %9, i32 0, i32 3
  %11 = load ptr, ptr %10, align 8
  %12 = icmp eq ptr %11, null
  br i1 %12, label %13, label %33

13:                                               ; preds = %3
  %14 = load ptr, ptr %6, align 8
  %15 = getelementptr inbounds %struct.archive_write_program_data, ptr %14, i32 0, i32 4
  store i64 65536, ptr %15, align 8
  %16 = load ptr, ptr %6, align 8
  %17 = getelementptr inbounds %struct.archive_write_program_data, ptr %16, i32 0, i32 5
  store i64 0, ptr %17, align 8
  %18 = load ptr, ptr %6, align 8
  %19 = getelementptr inbounds %struct.archive_write_program_data, ptr %18, i32 0, i32 4
  %20 = load i64, ptr %19, align 8
  %21 = call noalias ptr @malloc(i64 noundef %20) #10
  %22 = load ptr, ptr %6, align 8
  %23 = getelementptr inbounds %struct.archive_write_program_data, ptr %22, i32 0, i32 3
  store ptr %21, ptr %23, align 8
  %24 = load ptr, ptr %6, align 8
  %25 = getelementptr inbounds %struct.archive_write_program_data, ptr %24, i32 0, i32 3
  %26 = load ptr, ptr %25, align 8
  %27 = icmp eq ptr %26, null
  br i1 %27, label %28, label %32

28:                                               ; preds = %13
  %29 = load ptr, ptr %5, align 8
  %30 = getelementptr inbounds %struct.archive_write_filter, ptr %29, i32 0, i32 1
  %31 = load ptr, ptr %30, align 8
  call void (ptr, i32, ptr, ...) @archive_set_error(ptr noundef %31, i32 noundef 12, ptr noundef @.str.2)
  store i32 -30, ptr %4, align 4
  br label %50

32:                                               ; preds = %13
  br label %33

33:                                               ; preds = %32, %3
  %34 = load ptr, ptr %7, align 8
  %35 = load ptr, ptr %6, align 8
  %36 = getelementptr inbounds %struct.archive_write_program_data, ptr %35, i32 0, i32 1
  %37 = load ptr, ptr %6, align 8
  %38 = getelementptr inbounds %struct.archive_write_program_data, ptr %37, i32 0, i32 2
  %39 = load ptr, ptr %6, align 8
  %40 = getelementptr inbounds %struct.archive_write_program_data, ptr %39, i32 0, i32 0
  %41 = call i32 @__archive_create_child(ptr noundef %34, ptr noundef %36, ptr noundef %38, ptr noundef %40)
  store i32 %41, ptr %8, align 4
  %42 = load i32, ptr %8, align 4
  %43 = icmp ne i32 %42, 0
  br i1 %43, label %44, label %49

44:                                               ; preds = %33
  %45 = load ptr, ptr %5, align 8
  %46 = getelementptr inbounds %struct.archive_write_filter, ptr %45, i32 0, i32 1
  %47 = load ptr, ptr %46, align 8
  %48 = load ptr, ptr %7, align 8
  call void (ptr, i32, ptr, ...) @archive_set_error(ptr noundef %47, i32 noundef 22, ptr noundef @.str.3, ptr noundef %48)
  store i32 -30, ptr %4, align 4
  br label %50

49:                                               ; preds = %33
  store i32 0, ptr %4, align 4
  br label %50

50:                                               ; preds = %49, %44, %28
  %51 = load i32, ptr %4, align 4
  ret i32 %51
}

; Function Attrs: nounwind uwtable
define internal i32 @archive_compressor_program_open(ptr noundef %0) #0 {
  %2 = alloca ptr, align 8
  %3 = alloca ptr, align 8
  store ptr %0, ptr %2, align 8
  %4 = load ptr, ptr %2, align 8
  %5 = getelementptr inbounds %struct.archive_write_filter, ptr %4, i32 0, i32 9
  %6 = load ptr, ptr %5, align 8
  store ptr %6, ptr %3, align 8
  %7 = load ptr, ptr %2, align 8
  %8 = load ptr, ptr %3, align 8
  %9 = getelementptr inbounds %struct.private_data, ptr %8, i32 0, i32 0
  %10 = load ptr, ptr %9, align 8
  %11 = load ptr, ptr %3, align 8
  %12 = getelementptr inbounds %struct.private_data, ptr %11, i32 0, i32 2
  %13 = load ptr, ptr %12, align 8
  %14 = call i32 @__archive_write_program_open(ptr noundef %7, ptr noundef %10, ptr noundef %13)
  ret i32 %14
}