; Function Attrs: nounwind uwtable
define internal range(i32 -30, 1) i32 @archive_compressor_program_open(ptr noundef readonly captures(none) %0) #0 {
  %2 = getelementptr inbounds nuw i8, ptr %0, i64 72
  %3 = load ptr, ptr %2, align 8
  %4 = load ptr, ptr %3, align 8
  %5 = getelementptr inbounds nuw i8, ptr %3, i64 32
  %6 = load ptr, ptr %5, align 8
  %7 = getelementptr inbounds nuw i8, ptr %4, i64 16
  %8 = load ptr, ptr %7, align 8
  %9 = icmp eq ptr %8, null
  br i1 %9, label %10, label %18

10:                                               ; preds = %1
  %11 = getelementptr inbounds nuw i8, ptr %4, i64 24
  store i64 65536, ptr %11, align 8
  %12 = getelementptr inbounds nuw i8, ptr %4, i64 32
  store i64 0, ptr %12, align 8
  %13 = tail call noalias dereferenceable_or_null(65536) ptr @malloc(i64 noundef 65536) #14
  store ptr %13, ptr %7, align 8
  %14 = icmp eq ptr %13, null
  br i1 %14, label %15, label %18

15:                                               ; preds = %10
  %16 = getelementptr inbounds nuw i8, ptr %0, i64 8
  %17 = load ptr, ptr %16, align 8
  tail call void (ptr, i32, ptr, ...) @archive_set_error(ptr noundef %17, i32 noundef 12, ptr noundef nonnull @.str.2) #11
  br label %__archive_write_program_open.exit

18:                                               ; preds = %10, %1
  %19 = getelementptr inbounds nuw i8, ptr %4, i64 4
  %20 = getelementptr inbounds nuw i8, ptr %4, i64 8
  %21 = tail call i32 @__archive_create_child(ptr noundef %6, ptr noundef nonnull %19, ptr noundef nonnull %20, ptr noundef nonnull %4) #11
  %.not.i = icmp eq i32 %21, 0
  br i1 %.not.i, label %__archive_write_program_open.exit, label %22

22:                                               ; preds = %18
  %23 = getelementptr inbounds nuw i8, ptr %0, i64 8
  %24 = load ptr, ptr %23, align 8
  tail call void (ptr, i32, ptr, ...) @archive_set_error(ptr noundef %24, i32 noundef 22, ptr noundef nonnull @.str.3, ptr noundef %6) #11
  br label %__archive_write_program_open.exit

__archive_write_program_open.exit:                ; preds = %15, %18, %22
  %.0.i = phi i32 [ -30, %15 ], [ -30, %22 ], [ 0, %18 ]
  ret i32 %.0.i
}